target datalayout = "e-m:e-p270:32:32-p271:32:32-p272:64:64-i64:64-i128:128-f80:128-n8:16:32:64-S128"
target triple = "x86_64-pc-linux-gnu"

%struct.s_p_hashtbl = type { %struct.re_pattern_buffer, [173 x ptr] }
%struct.re_pattern_buffer = type { ptr, i64, i64, i64, ptr, ptr, i64, i8 }
%struct.s_p_values = type { ptr, i32, i32, i32, ptr, ptr, ptr, ptr }
%struct.conf_file_options = type { ptr, i32, ptr, ptr, ptr, ptr, ptr }
%struct._expline_values_st = type { ptr, ptr, ptr }

@.str = private unnamed_addr constant [15 x i8] c"parse_config.c\00", align 1
@__func__.s_p_hashtbl_create_cnt = private unnamed_addr constant [23 x i8] c"s_p_hashtbl_create_cnt\00", align 1
@keyvalue_pattern = internal global ptr @.str.33, align 8
@.str.1 = private unnamed_addr constant [34 x i8] c"keyvalue regex compilation failed\00", align 1

; Function Attrs: nounwind uwtable
define internal i32 @_conf_hashtbl_index(ptr noundef %0) #0 {
  %2 = alloca ptr, align 8
  %3 = alloca i32, align 4
  %4 = alloca i32, align 4
  %5 = alloca i32, align 4
  store ptr %0, ptr %2, align 8
  call void @llvm.lifetime.start.p0(i64 4, ptr %3) #9
  store i32 0, ptr %3, align 4
  br label %6

6:                                                ; preds = %25, %1
  %7 = load ptr, ptr %2, align 8
  %8 = load i8, ptr %7, align 1
  %9 = sext i8 %8 to i32
  %10 = icmp ne i32 %9, 0
  br i1 %10, label %11, label %28

11:                                               ; preds = %6
  call void @llvm.lifetime.start.p0(i64 4, ptr %4) #9
  %12 = call ptr @__ctype_tolower_loc() #10
  %13 = load ptr, ptr %12, align 8
  %14 = load ptr, ptr %2, align 8
  %15 = load i8, ptr %14, align 1
  %16 = sext i8 %15 to i32
  %17 = sext i32 %16 to i64
  %18 = getelementptr inbounds i32, ptr %13, i64 %17
  %19 = load i32, ptr %18, align 4
  store i32 %19, ptr %4, align 4
  %20 = load i32, ptr %4, align 4
  store i32 %20, ptr %5, align 4
  call void @llvm.lifetime.end.p0(i64 4, ptr %4) #9
  %21 = load i32, ptr %5, align 4
  %22 = load i32, ptr %3, align 4
  %23 = mul i32 31, %22
  %24 = add i32 %21, %23
  store i32 %24, ptr %3, align 4
  br label %25

25:                                               ; preds = %11
  %26 = load ptr, ptr %2, align 8
  %27 = getelementptr inbounds nuw i8, ptr %26, i32 1
  store ptr %27, ptr %2, align 8
  br label %6, !llvm.loop !56

28:                                               ; preds = %6
  %29 = load i32, ptr %3, align 4
  %30 = urem i32 %29, 173
  call void @llvm.lifetime.end.p0(i64 4, ptr %3) #9
  ret i32 %30
}

; Function Attrs: nounwind uwtable
define internal void @_conf_hashtbl_insert(ptr noundef %0, ptr noundef %1) #0 {
  %3 = alloca ptr, align 8
  %4 = alloca ptr, align 8
  %5 = alloca i32, align 4
  store ptr %0, ptr %3, align 8
  store ptr %1, ptr %4, align 8
  call void @llvm.lifetime.start.p0(i64 4, ptr %5) #9
  %6 = load ptr, ptr %4, align 8
  %7 = getelementptr inbounds nuw %struct.s_p_values, ptr %6, i32 0, i32 0
  %8 = load ptr, ptr %7, align 8
  %9 = call i32 @_conf_hashtbl_index(ptr noundef %8)
  store i32 %9, ptr %5, align 4
  %10 = load ptr, ptr %3, align 8
  %11 = getelementptr inbounds nuw %struct.s_p_hashtbl, ptr %10, i32 0, i32 1
  %12 = load i32, ptr %5, align 4
  %13 = sext i32 %12 to i64
  %14 = getelementptr inbounds [173 x ptr], ptr %11, i64 0, i64 %13
  %15 = load ptr, ptr %14, align 8
  %16 = load ptr, ptr %4, align 8
  %17 = getelementptr inbounds nuw %struct.s_p_values, ptr %16, i32 0, i32 7
  store ptr %15, ptr %17, align 8
  %18 = load ptr, ptr %4, align 8
  %19 = load ptr, ptr %3, align 8
  %20 = getelementptr inbounds nuw %struct.s_p_hashtbl, ptr %19, i32 0, i32 1
  %21 = load i32, ptr %5, align 4
  %22 = sext i32 %21 to i64
  %23 = getelementptr inbounds [173 x ptr], ptr %20, i64 0, i64 %22
  store ptr %18, ptr %23, align 8
  call void @llvm.lifetime.end.p0(i64 4, ptr %5) #9
  ret void
}

; Function Attrs: nounwind uwtable
define dso_local ptr @s_p_hashtbl_create(ptr noundef %0) #0 {
  %2 = alloca ptr, align 8
  store ptr %0, ptr %2, align 8
  %3 = load ptr, ptr %2, align 8
  %4 = call ptr @s_p_hashtbl_create_cnt(ptr noundef %3, ptr noundef null)
  ret ptr %4
}

; Function Attrs: nounwind uwtable
define dso_local ptr @s_p_hashtbl_create_cnt(ptr noundef %0, ptr noundef %1) #0 {
  %3 = alloca ptr, align 8
  %4 = alloca ptr, align 8
  %5 = alloca ptr, align 8
  %6 = alloca ptr, align 8
  %7 = alloca ptr, align 8
  %8 = alloca ptr, align 8
  store ptr %0, ptr %3, align 8
  store ptr %1, ptr %4, align 8
  call void @llvm.lifetime.start.p0(i64 8, ptr %5) #9
  %9 = call ptr @slurm_xcalloc(i64 noundef 1, i64 noundef 1448, i1 noundef zeroext true, i1 noundef zeroext false, ptr noundef @.str, i32 noundef 174, ptr noundef @__func__.s_p_hashtbl_create_cnt)
  store ptr %9, ptr %5, align 8
  %10 = load ptr, ptr %4, align 8
  %11 = icmp ne ptr %10, null
  br i1 %11, label %12, label %14

12:                                               ; preds = %2
  %13 = load ptr, ptr %4, align 8
  store i32 0, ptr %13, align 4
  br label %14

14:                                               ; preds = %12, %2
  call void @llvm.lifetime.start.p0(i64 8, ptr %6) #9
  %15 = load ptr, ptr %3, align 8
  store ptr %15, ptr %6, align 8
  br label %16

16:                                               ; preds = %88, %14
  %17 = load ptr, ptr %6, align 8
  %18 = getelementptr inbounds nuw %struct.conf_file_options, ptr %17, i32 0, i32 0
  %19 = load ptr, ptr %18, align 8
  %20 = icmp ne ptr %19, null
  br i1 %20, label %22, label %21

21:                                               ; preds = %16
  call void @llvm.lifetime.end.p0(i64 8, ptr %6) #9
  br label %91

22:                                               ; preds = %16
  call void @llvm.lifetime.start.p0(i64 8, ptr %7) #9
  %23 = call ptr @slurm_xcalloc(i64 noundef 1, i64 noundef 56, i1 noundef zeroext true, i1 noundef zeroext false, ptr noundef @.str, i32 noundef 179, ptr noundef @__func__.s_p_hashtbl_create_cnt)
  store ptr %23, ptr %7, align 8
  %24 = load ptr, ptr %4, align 8
  %25 = icmp ne ptr %24, null
  br i1 %25, label %26, label %30

26:                                               ; preds = %22
  %27 = load ptr, ptr %4, align 8
  %28 = load i32, ptr %27, align 4
  %29 = add nsw i32 %28, 1
  store i32 %29, ptr %27, align 4
  br label %30

30:                                               ; preds = %26, %22
  %31 = load ptr, ptr %6, align 8
  %32 = getelementptr inbounds nuw %struct.conf_file_options, ptr %31, i32 0, i32 0
  %33 = load ptr, ptr %32, align 8
  %34 = call ptr @xstrdup(ptr noundef %33)
  %35 = load ptr, ptr %7, align 8
  %36 = getelementptr inbounds nuw %struct.s_p_values, ptr %35, i32 0, i32 0
  store ptr %34, ptr %36, align 8
  %37 = load ptr, ptr %7, align 8
  %38 = getelementptr inbounds nuw %struct.s_p_values, ptr %37, i32 0, i32 2
  store i32 0, ptr %38, align 4
  %39 = load ptr, ptr %6, align 8
  %40 = getelementptr inbounds nuw %struct.conf_file_options, ptr %39, i32 0, i32 1
  %41 = load i32, ptr %40, align 8
  %42 = load ptr, ptr %7, align 8
  %43 = getelementptr inbounds nuw %struct.s_p_values, ptr %42, i32 0, i32 1
  store i32 %41, ptr %43, align 8
  %44 = load ptr, ptr %7, align 8
  %45 = getelementptr inbounds nuw %struct.s_p_values, ptr %44, i32 0, i32 3
  store i32 0, ptr %45, align 8
  %46 = load ptr, ptr %7, align 8
  %47 = getelementptr inbounds nuw %struct.s_p_values, ptr %46, i32 0, i32 4
  store ptr null, ptr %47, align 8
  %48 = load ptr, ptr %7, align 8
  %49 = getelementptr inbounds nuw %struct.s_p_values, ptr %48, i32 0, i32 7
  store ptr null, ptr %49, align 8
  %50 = load ptr, ptr %6, align 8
  %51 = getelementptr inbounds nuw %struct.conf_file_options, ptr %50, i32 0, i32 2
  %52 = load ptr, ptr %51, align 8
  %53 = load ptr, ptr %7, align 8
  %54 = getelementptr inbounds nuw %struct.s_p_values, ptr %53, i32 0, i32 5
  store ptr %52, ptr %54, align 8
  %55 = load ptr, ptr %6, align 8
  %56 = getelementptr inbounds nuw %struct.conf_file_options, ptr %55, i32 0, i32 3
  %57 = load ptr, ptr %56, align 8
  %58 = load ptr, ptr %7, align 8
  %59 = getelementptr inbounds nuw %struct.s_p_values, ptr %58, i32 0, i32 6
  store ptr %57, ptr %59, align 8
  %60 = load ptr, ptr %6, align 8
  %61 = getelementptr inbounds nuw %struct.conf_file_options, ptr %60, i32 0, i32 1
  %62 = load i32, ptr %61, align 8
  %63 = icmp eq i32 %62, 9
  br i1 %63, label %69, label %64

64:                                               ; preds = %30
  %65 = load ptr, ptr %6, align 8
  %66 = getelementptr inbounds nuw %struct.conf_file_options, ptr %65, i32 0, i32 1
  %67 = load i32, ptr %66, align 8
  %68 = icmp eq i32 %67, 10
  br i1 %68, label %69, label %85

69:                                               ; preds = %64, %30
  call void @llvm.lifetime.start.p0(i64 8, ptr %8) #9
  %70 = call ptr @slurm_xcalloc(i64 noundef 1, i64 noundef 24, i1 noundef zeroext true, i1 noundef zeroext false, ptr noundef @.str, i32 noundef 192, ptr noundef @__func__.s_p_hashtbl_create_cnt)
  store ptr %70, ptr %8, align 8
  %71 = load ptr, ptr %6, align 8
  %72 = getelementptr inbounds nuw %struct.conf_file_options, ptr %71, i32 0, i32 4
  %73 = load ptr, ptr %72, align 8
  %74 = call ptr @s_p_hashtbl_create(ptr noundef %73)
  %75 = load ptr, ptr %8, align 8
  %76 = getelementptr inbounds nuw %struct._expline_values_st, ptr %75, i32 0, i32 0
  store ptr %74, ptr %76, align 8
  %77 = call ptr @slurm_xcalloc(i64 noundef 1, i64 noundef 1448, i1 noundef zeroext true, i1 noundef zeroext false, ptr noundef @.str, i32 noundef 196, ptr noundef @__func__.s_p_hashtbl_create_cnt)
  %78 = load ptr, ptr %8, align 8
  %79 = getelementptr inbounds nuw %struct._expline_values_st, ptr %78, i32 0, i32 1
  store ptr %77, ptr %79, align 8
  %80 = load ptr, ptr %8, align 8
  %81 = getelementptr inbounds nuw %struct._expline_values_st, ptr %80, i32 0, i32 2
  store ptr null, ptr %81, align 8
  %82 = load ptr, ptr %8, align 8
  %83 = load ptr, ptr %7, align 8
  %84 = getelementptr inbounds nuw %struct.s_p_values, ptr %83, i32 0, i32 4
  store ptr %82, ptr %84, align 8
  call void @llvm.lifetime.end.p0(i64 8, ptr %8) #9
  br label %85

85:                                               ; preds = %69, %64
  %86 = load ptr, ptr %5, align 8
  %87 = load ptr, ptr %7, align 8
  call void @_conf_hashtbl_insert(ptr noundef %86, ptr noundef %87)
  call void @llvm.lifetime.end.p0(i64 8, ptr %7) #9
  br label %88

88:                                               ; preds = %85
  %89 = load ptr, ptr %6, align 8
  %90 = getelementptr inbounds nuw %struct.conf_file_options, ptr %89, i32 1
  store ptr %90, ptr %6, align 8
  br label %16, !llvm.loop !22

91:                                               ; preds = %21
  %92 = load ptr, ptr %5, align 8
  %93 = getelementptr inbounds nuw %struct.s_p_hashtbl, ptr %92, i32 0, i32 0
  %94 = load ptr, ptr @keyvalue_pattern, align 8
  %95 = call i32 @regcomp(ptr noundef %93, ptr noundef %94, i32 noundef 1)
  %96 = icmp ne i32 %95, 0
  br i1 %96, label %97, label %98

97:                                               ; preds = %91
  call void (ptr, ...) @fatal(ptr noundef @.str.1) #11
  unreachable

98:                                               ; preds = %91
  %99 = load ptr, ptr %5, align 8
  call void @llvm.lifetime.end.p0(i64 8, ptr %5) #9
  ret ptr %99
}