; Function Attrs: nounwind uwtable
define dso_local ptr @s_p_hashtbl_create_cnt(ptr noundef readonly captures(none) %0, ptr noundef captures(address_is_null) %1) local_unnamed_addr #0 {
  %3 = tail call ptr @slurm_xcalloc(i64 noundef 1, i64 noundef 1448, i1 noundef zeroext true, i1 noundef zeroext false, ptr noundef nonnull @.str, i32 noundef 174, ptr noundef nonnull @__func__.s_p_hashtbl_create_cnt) #13
  %.not = icmp eq ptr %1, null
  br i1 %.not, label %5, label %4

4:                                                ; preds = %2
  store i32 0, ptr %1, align 4
  br label %5

5:                                                ; preds = %4, %2
  %6 = load ptr, ptr %0, align 8
  %.not3335 = icmp eq ptr %6, null
  br i1 %.not3335, label %._crit_edge, label %.lr.ph

.lr.ph:                                           ; preds = %5
  %7 = getelementptr inbounds nuw i8, ptr %3, i64 64
  br label %9

._crit_edge:                                      ; preds = %_conf_hashtbl_insert.exit, %5
  %8 = tail call i32 @regcomp(ptr noundef %3, ptr noundef nonnull @.str.33, i32 noundef 1) #13
  %.not34 = icmp eq i32 %8, 0
  br i1 %.not34, label %60, label %59

9:                                                ; preds = %.lr.ph, %_conf_hashtbl_insert.exit
  %.036 = phi ptr [ %0, %.lr.ph ], [ %57, %_conf_hashtbl_insert.exit ]
  %10 = tail call ptr @slurm_xcalloc(i64 noundef 1, i64 noundef 56, i1 noundef zeroext true, i1 noundef zeroext false, ptr noundef nonnull @.str, i32 noundef 179, ptr noundef nonnull @__func__.s_p_hashtbl_create_cnt) #13
  br i1 %.not, label %14, label %11

11:                                               ; preds = %9
  %12 = load i32, ptr %1, align 4
  %13 = add nsw i32 %12, 1
  store i32 %13, ptr %1, align 4
  br label %14

14:                                               ; preds = %11, %9
  %15 = load ptr, ptr %.036, align 8
  %16 = tail call ptr @xstrdup(ptr noundef %15) #13
  store ptr %16, ptr %10, align 8
  %17 = getelementptr inbounds nuw i8, ptr %10, i64 12
  store i32 0, ptr %17, align 4
  %18 = getelementptr inbounds nuw i8, ptr %.036, i64 8
  %19 = load i32, ptr %18, align 8
  %20 = getelementptr inbounds nuw i8, ptr %10, i64 8
  store i32 %19, ptr %20, align 8
  %21 = getelementptr inbounds nuw i8, ptr %10, i64 16
  store i32 0, ptr %21, align 8
  %22 = getelementptr inbounds nuw i8, ptr %10, i64 24
  store ptr null, ptr %22, align 8
  %23 = getelementptr inbounds nuw i8, ptr %10, i64 48
  store ptr null, ptr %23, align 8
  %24 = getelementptr inbounds nuw i8, ptr %.036, i64 16
  %25 = load ptr, ptr %24, align 8
  %26 = getelementptr inbounds nuw i8, ptr %10, i64 32
  store ptr %25, ptr %26, align 8
  %27 = getelementptr inbounds nuw i8, ptr %.036, i64 24
  %28 = load ptr, ptr %27, align 8
  %29 = getelementptr inbounds nuw i8, ptr %10, i64 40
  store ptr %28, ptr %29, align 8
  %30 = load i32, ptr %18, align 8
  %.off = add i32 %30, -9
  %switch = icmp ult i32 %.off, 2
  br i1 %switch, label %31, label %39

31:                                               ; preds = %14
  %32 = tail call ptr @slurm_xcalloc(i64 noundef 1, i64 noundef 24, i1 noundef zeroext true, i1 noundef zeroext false, ptr noundef nonnull @.str, i32 noundef 192, ptr noundef nonnull @__func__.s_p_hashtbl_create_cnt) #13
  %33 = getelementptr inbounds nuw i8, ptr %.036, i64 32
  %34 = load ptr, ptr %33, align 8
  %35 = tail call ptr @s_p_hashtbl_create_cnt(ptr noundef %34, ptr noundef null)
  store ptr %35, ptr %32, align 8
  %36 = tail call ptr @slurm_xcalloc(i64 noundef 1, i64 noundef 1448, i1 noundef zeroext true, i1 noundef zeroext false, ptr noundef nonnull @.str, i32 noundef 196, ptr noundef nonnull @__func__.s_p_hashtbl_create_cnt) #13
  %37 = getelementptr inbounds nuw i8, ptr %32, i64 8
  store ptr %36, ptr %37, align 8
  %38 = getelementptr inbounds nuw i8, ptr %32, i64 16
  store ptr null, ptr %38, align 8
  store ptr %32, ptr %22, align 8
  %.pre = load ptr, ptr %10, align 8
  br label %39

39:                                               ; preds = %14, %31
  %40 = phi ptr [ %16, %14 ], [ %.pre, %31 ]
  %41 = load i8, ptr %40, align 1
  %.not8.i.i = icmp eq i8 %41, 0
  br i1 %.not8.i.i, label %_conf_hashtbl_insert.exit, label %.lr.ph.i.i

.lr.ph.i.i:                                       ; preds = %39
  %42 = tail call ptr @__ctype_tolower_loc() #15
  %43 = load ptr, ptr %42, align 8
  br label %44

44:                                               ; preds = %44, %.lr.ph.i.i
  %45 = phi i8 [ %41, %.lr.ph.i.i ], [ %52, %44 ]
  %.010.i.i = phi ptr [ %40, %.lr.ph.i.i ], [ %51, %44 ]
  %.069.i.i = phi i32 [ 0, %.lr.ph.i.i ], [ %50, %44 ]
  %46 = sext i8 %45 to i64
  %47 = getelementptr inbounds i32, ptr %43, i64 %46
  %48 = load i32, ptr %47, align 4
  %49 = mul i32 %.069.i.i, 31
  %50 = add i32 %48, %49
  %51 = getelementptr inbounds nuw i8, ptr %.010.i.i, i64 1
  %52 = load i8, ptr %51, align 1
  %.not.i.i = icmp eq i8 %52, 0
  br i1 %.not.i.i, label %._crit_edge.loopexit.i.i, label %44, !llvm.loop !28

._crit_edge.loopexit.i.i:                         ; preds = %44
  %53 = urem i32 %50, 173
  %54 = zext nneg i32 %53 to i64
  br label %_conf_hashtbl_insert.exit

_conf_hashtbl_insert.exit:                        ; preds = %39, %._crit_edge.loopexit.i.i
  %.06.lcssa.i.i = phi i64 [ 0, %39 ], [ %54, %._crit_edge.loopexit.i.i ]
  %55 = getelementptr inbounds nuw [173 x ptr], ptr %7, i64 0, i64 %.06.lcssa.i.i
  %56 = load ptr, ptr %55, align 8
  store ptr %56, ptr %23, align 8
  store ptr %10, ptr %55, align 8
  %57 = getelementptr inbounds nuw i8, ptr %.036, i64 56
  %58 = load ptr, ptr %57, align 8
  %.not33 = icmp eq ptr %58, null
  br i1 %.not33, label %._crit_edge, label %9, !llvm.loop !37

59:                                               ; preds = %._crit_edge
  tail call void (ptr, ...) @fatal(ptr noundef nonnull @.str.1) #16
  unreachable

60:                                               ; preds = %._crit_edge
  ret ptr %3
}